; Function Attrs: mustprogress uwtable
define dso_local void @_ZNK11cmCMakePath13GetNativePathERNSt7__cxx1112basic_stringIcSt11char_traitsIcESaIcEEE(ptr noundef nonnull align 8 dereferenceable(40) %0, ptr noundef nonnull align 8 dereferenceable(32) %1) local_unnamed_addr #0 align 2 personality ptr @__gxx_personality_v0 {
  %3 = alloca %"class.std::allocator", align 1
  %4 = alloca %"class.std::filesystem::__cxx11::path", align 8
  %5 = alloca %"class.std::__cxx11::basic_string", align 8
  call void @_ZNSt7__cxx1112basic_stringIcSt11char_traitsIcESaIcEEC1ERKS4_(ptr noundef nonnull align 8 dereferenceable(32) %4, ptr noundef nonnull align 8 dereferenceable(32) %0)
  %6 = getelementptr inbounds i8, ptr %4, i64 32
  %7 = getelementptr inbounds i8, ptr %0, i64 32
  invoke void @_ZNSt10filesystem7__cxx114path5_ListC1ERKS2_(ptr noundef nonnull align 8 dereferenceable(8) %6, ptr noundef nonnull align 8 dereferenceable(8) %7)
          to label %_ZNSt10filesystem7__cxx114pathC2ERKS1_.exit unwind label %8

common.resume:                                    ; preds = %.body, %8
  %common.resume.op = phi { ptr, i32 } [ %9, %8 ], [ %12, %.body ]
  resume { ptr, i32 } %common.resume.op

8:                                                ; preds = %2
  %9 = landingpad { ptr, i32 }
          cleanup
  call void @_ZNSt7__cxx1112basic_stringIcSt11char_traitsIcESaIcEED1Ev(ptr noundef nonnull align 8 dereferenceable(32) %4) #10
  br label %common.resume

_ZNSt10filesystem7__cxx114pathC2ERKS1_.exit:      ; preds = %2
  call void @llvm.lifetime.start.p0(i64 1, ptr nonnull %3)
  call void @_ZNSaIcEC1Ev(ptr noundef nonnull align 1 dereferenceable(1) %3) #10, !noalias !43
  %10 = call noundef ptr @_ZNKSt7__cxx1112basic_stringIcSt11char_traitsIcESaIcEE5c_strEv(ptr noundef nonnull align 8 dereferenceable(32) %4) #10, !noalias !46
  %11 = call noundef i64 @_ZNKSt7__cxx1112basic_stringIcSt11char_traitsIcESaIcEE6lengthEv(ptr noundef nonnull align 8 dereferenceable(32) %4) #10, !noalias !46
  invoke void @_ZNSt7__cxx1112basic_stringIcSt11char_traitsIcESaIcEEC1EPKcmRKS3_(ptr noundef nonnull align 8 dereferenceable(32) %5, ptr noundef %10, i64 noundef %11, ptr noundef nonnull align 1 dereferenceable(1) %3)
          to label %13 unwind label %.body

.body:                                            ; preds = %_ZNSt10filesystem7__cxx114pathC2ERKS1_.exit
  %12 = landingpad { ptr, i32 }
          cleanup
  call void @_ZNSaIcED1Ev(ptr noundef nonnull align 1 dereferenceable(1) %3) #10
  call void @_ZNSt10filesystem7__cxx114pathD2Ev(ptr noundef nonnull align 8 dereferenceable(40) %4) #10
  br label %common.resume

13:                                               ; preds = %_ZNSt10filesystem7__cxx114pathC2ERKS1_.exit
  call void @_ZNSaIcED1Ev(ptr noundef nonnull align 1 dereferenceable(1) %3) #10
  call void @llvm.lifetime.end.p0(i64 1, ptr nonnull %3)
  %14 = call noundef nonnull align 8 dereferenceable(32) ptr @_ZNSt7__cxx1112basic_stringIcSt11char_traitsIcESaIcEEaSEOS4_(ptr noundef nonnull align 8 dereferenceable(32) %1, ptr noundef nonnull align 8 dereferenceable(32) %5) #10
  call void @_ZNSt7__cxx1112basic_stringIcSt11char_traitsIcESaIcEED1Ev(ptr noundef nonnull align 8 dereferenceable(32) %5) #10
  %15 = load ptr, ptr %6, align 8
  %.not.i.i.i = icmp eq ptr %15, null
  br i1 %.not.i.i.i, label %_ZNSt10filesystem7__cxx114pathD2Ev.exit, label %16

16:                                               ; preds = %13
  call void @_ZNKSt10filesystem7__cxx114path5_List13_Impl_deleterclEPNS2_5_ImplE(ptr noundef nonnull align 1 dereferenceable(1) %6, ptr noundef nonnull %15) #10
  br label %_ZNSt10filesystem7__cxx114pathD2Ev.exit

_ZNSt10filesystem7__cxx114pathD2Ev.exit:          ; preds = %13, %16
  store ptr null, ptr %6, align 8
  call void @_ZNSt7__cxx1112basic_stringIcSt11char_traitsIcESaIcEED1Ev(ptr noundef nonnull align 8 dereferenceable(32) %4) #10
  ret void
}